; Function Attrs: nounwind uwtable
define internal fastcc noalias nonnull ptr @_init_l___private_Lean_Meta_Tactic_Grind_PP_0__Lean_Meta_Grind_ppThresholds___lambda__2___closed__4() unnamed_addr #0 {
  %1 = load ptr, ptr @l___private_Lean_Meta_Tactic_Grind_PP_0__Lean_Meta_Grind_ppThresholds___lambda__2___closed__3, align 8, !tbaa !10
  %2 = load double, ptr @l_Lean_Meta_Grind_ppExprArray___closed__1, align 8, !tbaa !16
  %3 = load ptr, ptr @l_Lean_Meta_Grind_Goal_ppENodeRef___closed__8, align 8, !tbaa !10
  tail call void @lean_inc_heartbeat() #4
  %4 = tail call noalias ptr @mi_malloc_small(i64 noundef 48) #4
  %5 = icmp eq ptr %4, null
  br i1 %5, label %6, label %lean_alloc_ctor.exit

6:                                                ; preds = %0
  tail call void @lean_internal_panic_out_of_memory() #5
  unreachable

lean_alloc_ctor.exit:                             ; preds = %0
  %7 = getelementptr inbounds nuw i8, ptr %4, i64 4
  %8 = getelementptr inbounds nuw i8, ptr %4, i64 40
  store i64 1, ptr %8, align 8, !tbaa !12
  store i32 1, ptr %4, align 4, !tbaa !4
  store i32 131120, ptr %7, align 4
  %9 = getelementptr inbounds nuw i8, ptr %4, i64 8
  store ptr %1, ptr %9, align 8, !tbaa !10
  %10 = getelementptr inbounds nuw i8, ptr %4, i64 16
  store ptr %3, ptr %10, align 8, !tbaa !10
  %11 = getelementptr inbounds nuw i8, ptr %4, i64 24
  store double %2, ptr %11, align 8, !tbaa !16
  %12 = getelementptr inbounds nuw i8, ptr %4, i64 32
  store double %2, ptr %12, align 8, !tbaa !16
  ret ptr %4
}